
/home/boop/.cache/tt-metal-cache/a4347c0dda/6213700099554438170/kernels/Kernel_Source_Code/1549901364368368725/trisc1/trisc1.elf:     file format elf32-littleriscv


Disassembly of section .text:

00006290 <_start>:
    6290:	ff010113          	addi	sp,sp,-16

00006294 <.LBB252>:
    6294:	ffb007b7          	lui	a5,0xffb00

00006298 <.LM11>:
    6298:	03078793          	addi	a5,a5,48 # ffb00030 <__fw_export_ldm_end+0x10>

0000629c <.LM12>:
    629c:	83018713          	addi	a4,gp,-2000 # ffb00020 <__fw_export_ldm_end>
    62a0:	00f76e63          	bltu	a4,a5,62bc <.L2>

000062a4 <.L3>:
    62a4:	fe07ae23          	sw	zero,-4(a5)

000062a8 <.LM14>:
    62a8:	fe07ac23          	sw	zero,-8(a5)

000062ac <.LM15>:
    62ac:	fe07aa23          	sw	zero,-12(a5)

000062b0 <.LM16>:
    62b0:	fe07a823          	sw	zero,-16(a5)

000062b4 <.LM17>:
    62b4:	01078793          	addi	a5,a5,16

000062b8 <.LM18>:
    62b8:	fef776e3          	bgeu	a4,a5,62a4 <.L3>

000062bc <.L2>:
    62bc:	ff878693          	addi	a3,a5,-8

000062c0 <.LM20>:
    62c0:	24d76e63          	bltu	a4,a3,651c <.L19>

000062c4 <.LM21>:
    62c4:	fe07aa23          	sw	zero,-12(a5)

000062c8 <.LM22>:
    62c8:	fe07a823          	sw	zero,-16(a5)

000062cc <.L4>:
    62cc:	ffc78693          	addi	a3,a5,-4

000062d0 <.LM24>:
    62d0:	00d76463          	bltu	a4,a3,62d8 <.L5>

000062d4 <.LM25>:
    62d4:	fe07ac23          	sw	zero,-8(a5)

000062d8 <.L5>:
    62d8:	00006737          	lui	a4,0x6
    62dc:	52470713          	addi	a4,a4,1316 # 6524 <__kernel_data_lma>
    62e0:	83018793          	addi	a5,gp,-2000 # ffb00020 <__fw_export_ldm_end>
    62e4:	06f70063          	beq	a4,a5,6344 <.L7>

000062e8 <.LM27>:
    62e8:	83018613          	addi	a2,gp,-2000 # ffb00020 <__fw_export_ldm_end>
    62ec:	40f60633          	sub	a2,a2,a5

000062f0 <.LBB257>:
    62f0:	00800593          	li	a1,8

000062f4 <.LBE257>:
    62f4:	40265693          	srai	a3,a2,0x2

000062f8 <.LBB261>:
    62f8:	02c5d863          	bge	a1,a2,6328 <.L8>
    62fc:	00200813          	li	a6,2

00006300 <.L9>:
    6300:	00072503          	lw	a0,0(a4)
    6304:	00472583          	lw	a1,4(a4)
    6308:	00872603          	lw	a2,8(a4)

0000630c <.LM33>:
    630c:	00c70713          	addi	a4,a4,12
    6310:	00c78793          	addi	a5,a5,12
    6314:	ffd68693          	addi	a3,a3,-3

00006318 <.LM34>:
    6318:	fea7aa23          	sw	a0,-12(a5)
    631c:	feb7ac23          	sw	a1,-8(a5)
    6320:	fec7ae23          	sw	a2,-4(a5)

00006324 <.LBE259>:
    6324:	fcd84ee3          	blt	a6,a3,6300 <.L9>

00006328 <.L8>:
    6328:	00d05e63          	blez	a3,6344 <.L7>

0000632c <.LM37>:
    632c:	00072583          	lw	a1,0(a4)

00006330 <.LM38>:
    6330:	00200613          	li	a2,2

00006334 <.LM39>:
    6334:	00b7a023          	sw	a1,0(a5)

00006338 <.LM40>:
    6338:	00c69663          	bne	a3,a2,6344 <.L7>

0000633c <.LM41>:
    633c:	00472703          	lw	a4,4(a4)
    6340:	00e7a223          	sw	a4,4(a5)

00006344 <.L7>:
    6344:	3a002703          	lw	a4,928(zero) # 3a0 <.LLST92+0x11>

00006348 <.LM48>:
    6348:	08000693          	li	a3,128
    634c:	00271713          	slli	a4,a4,0x2

00006350 <.LM50>:
    6350:	37374783          	lbu	a5,883(a4)
    6354:	06070713          	addi	a4,a4,96

00006358 <.LM51>:
    6358:	00d78863          	beq	a5,a3,6368 <.L13>

0000635c <.L11>:
    635c:	0ff0000f          	fence

00006360 <.LBE266>:
    6360:	31374783          	lbu	a5,787(a4)

00006364 <.LM57>:
    6364:	fed79ce3          	bne	a5,a3,635c <.L11>

00006368 <.L13>:
    6368:	c8340002          	ttsetc16	13,0

0000636c <.LM70>:
    636c:	c8740002          	ttsetc16	29,0

00006370 <.LM72>:
    6370:	c8c00002          	ttsetc16	48,0

00006374 <.LBE271>:
    6374:	ffe40737          	lui	a4,0xffe40

00006378 <.LBB274>:
    6378:	8201a783          	lw	a5,-2016(gp) # ffb00010 <rta_l1_base>

0000637c <.LBB436>:
    637c:	00070713          	mv	a4,a4
    6380:	101846b7          	lui	a3,0x10184
    6384:	00d72023          	sw	a3,0(a4) # ffe40000 <__instrn_buffer>

00006388 <.LBB281>:
    6388:	0007af03          	lw	t5,0(a5)

0000638c <.LBB284>:
    638c:	0047a603          	lw	a2,4(a5)

00006390 <.LBB286>:
    6390:	c83c0002          	ttsetc16	15,0

00006394 <.LM104>:
    6394:	c87c0002          	ttsetc16	31,0

00006398 <.LM105>:
    6398:	c8c80002          	ttsetc16	50,0

0000639c <.LBB295>:
    639c:	c8300006          	ttsetc16	12,1

000063a0 <.LM108>:
    63a0:	c8700006          	ttsetc16	28,1

000063a4 <.LM109>:
    63a4:	c8bc0002          	ttsetc16	47,0

000063a8 <.LBB297>:
    63a8:	c8380022          	ttsetc16	14,8

000063ac <.LM112>:
    63ac:	c8780022          	ttsetc16	30,8

000063b0 <.LM113>:
    63b0:	c8c40002          	ttsetc16	49,0

000063b4 <.LBB299>:
    63b4:	00012623          	sw	zero,12(sp)

000063b8 <.LM118>:
    63b8:	00c12783          	lw	a5,12(sp)
    63bc:	ffe806b7          	lui	a3,0xffe80
    63c0:	00f6a423          	sw	a5,8(a3) # ffe80008 <__instrn_buffer+0x40008>

000063c4 <.LM119>:
    63c4:	0086a803          	lw	a6,8(a3)

000063c8 <.LBE305>:
    63c8:	ffb807b7          	lui	a5,0xffb80
    63cc:	00400513          	li	a0,4

000063d0 <.LM121>:
    63d0:	00200593          	li	a1,2

000063d4 <.LBB308>:
    63d4:	01012623          	sw	a6,12(sp)

000063d8 <.LBE308>:
    63d8:	00a7a023          	sw	a0,0(a5) # ffb80000 <__global_pointer$+0x7f810>

000063dc <.LM124>:
    63dc:	00b7a223          	sw	a1,4(a5)

000063e0 <.LM125>:
    63e0:	02000537          	lui	a0,0x2000

000063e4 <.LM126>:
    63e4:	37c005b7          	lui	a1,0x37c00

000063e8 <.LM127>:
    63e8:	00a7a423          	sw	a0,8(a5)

000063ec <.LM128>:
    63ec:	00358593          	addi	a1,a1,3 # 37c00003 <.LASF1274+0x37bf64d1>
    63f0:	00b7a623          	sw	a1,12(a5)

000063f4 <.LM129>:
    63f4:	00a7a823          	sw	a0,16(a5)

000063f8 <.LM130>:
    63f8:	1200a5b7          	lui	a1,0x1200a
    63fc:	00b7aa23          	sw	a1,20(a5)

00006400 <.LM131>:
    6400:	00a7ac23          	sw	a0,24(a5)

00006404 <.LM132>:
    6404:	00b7ae23          	sw	a1,28(a5)

00006408 <.LM133>:
    6408:	02b7a023          	sw	a1,32(a5)

0000640c <.LBE299>:
    640c:	c81c0002          	ttsetc16	7,0

00006410 <.LBB309>:
    6410:	dc00003c          	ttsetrwc	0,0,0,0,0,15

00006414 <.LBB311>:
    6414:	00012423          	sw	zero,8(sp)

00006418 <.LM144>:
    6418:	00812783          	lw	a5,8(sp)
    641c:	00f6a223          	sw	a5,4(a3)

00006420 <.LM147>:
    6420:	0046a783          	lw	a5,4(a3)

00006424 <.LM149>:
    6424:	00f12423          	sw	a5,8(sp)

00006428 <.L12>:
    6428:	0246a783          	lw	a5,36(a3)

0000642c <.LBE316>:
    642c:	0ff7f793          	zext.b	a5,a5
    6430:	fe079ce3          	bnez	a5,6428 <.L12>

00006434 <.LM156>:
    6434:	8c800022          	ttseminit	2,0,2

00006438 <.LBB318>:
    6438:	b2010337          	lui	t1,0xb2010

0000643c <.LBB331>:
    643c:	b30817b7          	lui	a5,0xb3081

00006440 <.LBB324>:
    6440:	00672023          	sw	t1,0(a4)

00006444 <.LBB338>:
    6444:	8dc78793          	addi	a5,a5,-1828 # b30808dc <.LASF1274+0xb3076daa>
    6448:	00f72023          	sw	a5,0(a4)

0000644c <.LBB325>:
    644c:	8001a823          	sw	zero,-2032(gp) # ffb00000 <_ZN7ckernel14dest_offset_idE>

00006450 <.LBB326>:
    6450:	89000042          	ttstallwait	128,16

00006454 <.LBB341>:
    6454:	b68007b7          	lui	a5,0xb6800
    6458:	00178793          	addi	a5,a5,1 # b6800001 <.LASF1274+0xb67f64cf>
    645c:	00f72023          	sw	a5,0(a4)

00006460 <.LBB354>:
    6460:	0a0f0863          	beqz	t5,6510 <.L28>

00006464 <.LBB355>:
    6464:	711a07b7          	lui	a5,0x711a0
    6468:	08064fb3          	zext.h	t6,a2
    646c:	01065613          	srli	a2,a2,0x10

00006470 <.LM174>:
    6470:	00ff8fb3          	add	t6,t6,a5
    6474:	711807b7          	lui	a5,0x71180
    6478:	00f60eb3          	add	t4,a2,a5
    647c:	00000693          	li	a3,0

00006480 <.LBE355>:
    6480:	00000893          	li	a7,0
    6484:	7000e537          	lui	a0,0x7000e
    6488:	7200e5b7          	lui	a1,0x7200e

0000648c <.LBB365>:
    648c:	04000613          	li	a2,64

00006490 <.LBB393>:
    6490:	00100293          	li	t0,1

00006494 <.L16>:
    6494:	9a84002a          	ttsemwait	322,2,2

00006498 <.LBB418>:
    6498:	00d037b3          	snez	a5,a3
    649c:	00979793          	slli	a5,a5,0x9

000064a0 <.LBB425>:
    64a0:	006787b3          	add	a5,a5,t1
    64a4:	00f72023          	sw	a5,0(a4)

000064a8 <.LBB427>:
    64a8:	06000000          	ttmop	1,0,0

000064ac <.LBB429>:
    64ac:	dc000010          	ttsetrwc	0,0,0,0,0,4

000064b0 <.LBB359>:
    64b0:	01f72023          	sw	t6,0(a4)
    64b4:	01d72023          	sw	t4,0(a4)

000064b8 <.LBB366>:
    64b8:	00000793          	li	a5,0

000064bc <.L15>:
    64bc:	00a786b3          	add	a3,a5,a0
    64c0:	00d72023          	sw	a3,0(a4)

000064c4 <.LBB373>:
    64c4:	14280402          	sfpadd	L0,L10,L0,L1,0
    64c8:	3c000002          	sfpnop

000064cc <.LBB375>:
    64cc:	00b786b3          	add	a3,a5,a1
    64d0:	00d72023          	sw	a3,0(a4)

000064d4 <.LBE391>:
    64d4:	00278793          	addi	a5,a5,2 # 71180002 <.LASF1274+0x711764d0>
    64d8:	fec792e3          	bne	a5,a2,64bc <.L15>

000064dc <.LBB407>:
    64dc:	88042042          	ttstallwait	2,2064

000064e0 <.LM281>:
    64e0:	90000022          	ttsempost	2

000064e4 <.LBB401>:
    64e4:	8101a783          	lw	a5,-2032(gp) # ffb00000 <_ZN7ckernel14dest_offset_idE>
    64e8:	40f286b3          	sub	a3,t0,a5

000064ec <.LM288>:
    64ec:	80d1a823          	sw	a3,-2032(gp) # ffb00000 <_ZN7ckernel14dest_offset_idE>

000064f0 <.LBB402>:
    64f0:	89002042          	ttstallwait	128,2064

000064f4 <.LBB405>:
    64f4:	fff78793          	addi	a5,a5,-1

000064f8 <.LM296>:
    64f8:	00f037b3          	snez	a5,a5

000064fc <.LM297>:
    64fc:	00979793          	slli	a5,a5,0x9

00006500 <.LBE405>:
    6500:	006787b3          	add	a5,a5,t1
    6504:	00f72023          	sw	a5,0(a4)

00006508 <.LBE410>:
    6508:	00188893          	addi	a7,a7,1

0000650c <.LM307>:
    650c:	f91f14e3          	bne	t5,a7,6494 <.L16>

00006510 <.L28>:
    6510:	00000513          	li	a0,0
    6514:	01010113          	addi	sp,sp,16

00006518 <.LM310>:
    6518:	00008067          	ret

0000651c <.L19>:
    651c:	00068793          	mv	a5,a3
    6520:	dadff06f          	j	62cc <.L4>
